target datalayout = "e-m:e-p270:32:32-p271:32:32-p272:64:64-i64:64-i128:128-f80:128-n8:16:32:64-S128"
target triple = "x86_64-pc-linux-gnu"

%"struct.rocksdb::Cache::AsyncLookupHandle" = type <{ %"class.rocksdb::Slice", ptr, ptr, i32, [4 x i8], ptr, ptr, ptr, ptr, i8, i8, [6 x i8] }>
%"class.rocksdb::Slice" = type { ptr, i64 }

; Function Attrs: mustprogress nounwind uwtable
define noundef ptr @_ZN7rocksdb5Cache17AsyncLookupHandle6ResultEv(ptr noundef nonnull align 8 dereferenceable(74) %0) #3 align 2 {
  %2 = alloca ptr, align 8
  store ptr %0, ptr %2, align 8, !tbaa !159
  %3 = load ptr, ptr %2, align 8
  %4 = getelementptr inbounds nuw %"struct.rocksdb::Cache::AsyncLookupHandle", ptr %3, i32 0, i32 6
  %5 = load ptr, ptr %4, align 8, !tbaa !168
  ret ptr %5
}

; Function Attrs: mustprogress uwtable
define noundef ptr @_ZN7rocksdb5Cache4WaitERNS0_17AsyncLookupHandleE(ptr noundef nonnull align 8 dereferenceable(80) %0, ptr noundef nonnull align 8 dereferenceable(74) %1) #1 align 2 {
  %3 = alloca ptr, align 8
  %4 = alloca ptr, align 8
  store ptr %0, ptr %3, align 8, !tbaa !169
  store ptr %1, ptr %4, align 8, !tbaa !159
  %5 = load ptr, ptr %3, align 8
  %6 = load ptr, ptr %4, align 8, !tbaa !159
  %7 = load ptr, ptr %5, align 8, !tbaa !112
  %8 = getelementptr inbounds ptr, ptr %7, i64 48
  %9 = load ptr, ptr %8, align 8
  call void %9(ptr noundef nonnull align 8 dereferenceable(80) %5, ptr noundef %6, i64 noundef 1)
  %10 = load ptr, ptr %4, align 8, !tbaa !159
  %11 = call noundef ptr @_ZN7rocksdb5Cache17AsyncLookupHandle6ResultEv(ptr noundef nonnull align 8 dereferenceable(74) %10)
  ret ptr %11
}