; Function Attrs: mustprogress uwtable
define noundef ptr @_ZN7rocksdb5Cache4WaitERNS0_17AsyncLookupHandleE(ptr noundef nonnull align 8 dereferenceable(80) %0, ptr noundef nonnull align 8 dereferenceable(74) %1) local_unnamed_addr #1 align 2 {
  %3 = load ptr, ptr %0, align 8, !tbaa !94
  %4 = getelementptr inbounds nuw i8, ptr %3, i64 384
  %5 = load ptr, ptr %4, align 8
  tail call void %5(ptr noundef nonnull align 8 dereferenceable(80) %0, ptr noundef nonnull %1, i64 noundef 1)
  %6 = getelementptr inbounds nuw i8, ptr %1, i64 48
  %7 = load ptr, ptr %6, align 8, !tbaa !181
  ret ptr %7
}